target datalayout = "e-m:e-p270:32:32-p271:32:32-p272:64:64-i64:64-i128:128-f80:128-n8:16:32:64-S128"
target triple = "x86_64-pc-linux-gnu"

%"class.cv::xfeatures2d::LUCIDImpl" = type { %"class.cv::xfeatures2d::LUCID", i32, i32 }
%"class.cv::xfeatures2d::LUCID" = type { %"class.cv::Feature2D" }
%"class.cv::Feature2D" = type { %"class.cv::Algorithm" }
%"class.cv::Algorithm" = type { ptr }

; Function Attrs: mustprogress nounwind uwtable
define hidden noundef i32 @_ZNK2cv11xfeatures2d9LUCIDImpl14descriptorSizeEv(ptr noundef nonnull align 8 dereferenceable(16) %0) unnamed_addr #7 align 2 {
  %2 = alloca ptr, align 8
  store ptr %0, ptr %2, align 8, !tbaa !14
  %3 = load ptr, ptr %2, align 8
  %4 = getelementptr inbounds nuw %"class.cv::xfeatures2d::LUCIDImpl", ptr %3, i32 0, i32 1
  %5 = load i32, ptr %4, align 8, !tbaa !20
  %6 = mul nsw i32 %5, 2
  %7 = add nsw i32 %6, 1
  %8 = getelementptr inbounds nuw %"class.cv::xfeatures2d::LUCIDImpl", ptr %3, i32 0, i32 1
  %9 = load i32, ptr %8, align 8, !tbaa !20
  %10 = mul nsw i32 %9, 2
  %11 = add nsw i32 %10, 1
  %12 = mul nsw i32 %7, %11
  %13 = mul nsw i32 %12, 3
  ret i32 %13
}