; Function Attrs: mustprogress nofree norecurse nosync nounwind willreturn memory(argmem: read) uwtable
define hidden noundef range(i32 0, -2147483648) i32 @_ZNK2cv11xfeatures2d9LUCIDImpl14descriptorSizeEv(ptr noundef nonnull readonly align 8 captures(none) dereferenceable(16) %0) unnamed_addr #6 align 2 {
  %2 = getelementptr inbounds nuw i8, ptr %0, i64 8
  %3 = load i32, ptr %2, align 8, !tbaa !16
  %4 = shl nsw i32 %3, 1
  %5 = or disjoint i32 %4, 1
  %6 = mul i32 %5, 3
  %7 = mul i32 %6, %5
  ret i32 %7
}